target datalayout = "e-m:e-p270:32:32-p271:32:32-p272:64:64-i64:64-i128:128-f80:128-n8:16:32:64-S128"
target triple = "x86_64-pc-linux-gnu"

%struct.AVProbeData = type { ptr, ptr, i32, ptr }
%struct.AVFormatContext = type { ptr, ptr, ptr, ptr, ptr, i32, i32, ptr, i32, ptr, i32, ptr, ptr, i64, i64, i64, i32, i32, i32, i64, i64, ptr, i32, i32, ptr, i32, i32, i32, i32, ptr, i64, i32, i32, %struct.AVIOInterruptCB, i32, i32, i32, i32, i64, i32, i32, i32, i32, i32, i32, i32, i32, i32, i32, i32, i32, i64, i32, i32, i32, i32, i32, ptr, ptr, ptr, ptr, i32, ptr, ptr, ptr, ptr, i32, ptr, ptr, i64, ptr, ptr, ptr, i64 }
%struct.AVIOInterruptCB = type { ptr, ptr }
%struct.NSVContext = type { i32, i32, ptr, i32, i32, [2 x %struct.AVPacket], i64, i32, i32, i16, i16, i16, %struct.AVRational, ptr, i32 }
%struct.AVPacket = type { ptr, i64, i64, ptr, i32, i32, i32, ptr, i32, i64, i64, ptr, ptr, %struct.AVRational }
%struct.AVRational = type { i32, i32 }
%struct.AVStream = type { ptr, i32, i32, ptr, ptr, %struct.AVRational, i64, i64, i64, i32, i32, %struct.AVRational, ptr, %struct.AVRational, %struct.AVPacket, i32, %struct.AVRational, i32 }
%struct.FFStream = type { %struct.AVStream, ptr, i32, ptr, i32, ptr, i32, %struct.anon, i32, i32, %struct.FFFrac, ptr, ptr, i32, i32, i64, i64, i32, i32, i32, i64, i64, i64, i32, i64, i64, i64, i32, i32, [17 x i64], [17 x i8], [17 x i64], i64, i8, i8, %struct.AVRational, %struct.AVProbeData, ptr, i64, i32, i32, i32, ptr, i32, i32, i64, i64, ptr, %struct.AVRational }
%struct.anon = type { ptr, i32 }
%struct.FFFrac = type { i64, i64, i64 }
%struct.AVIndexEntry = type { i64, i64, i32, i32 }
%struct.NSVStream = type { i32, i32, i32, i32, i32, i32, i32 }

; Function Attrs: alwaysinline nounwind uwtable
define internal ptr @ffstream(ptr noundef %0) #3 {
  %2 = alloca ptr, align 8
  store ptr %0, ptr %2, align 8, !tbaa !54
  %3 = load ptr, ptr %2, align 8, !tbaa !54
  ret ptr %3
}

; Function Attrs: nounwind uwtable
define internal i32 @nsv_read_seek(ptr noundef %0, i32 noundef %1, i64 noundef %2, i32 noundef %3) #0 {
  %5 = alloca i32, align 4
  %6 = alloca ptr, align 8
  %7 = alloca i32, align 4
  %8 = alloca i64, align 8
  %9 = alloca i32, align 4
  %10 = alloca ptr, align 8
  %11 = alloca ptr, align 8
  %12 = alloca ptr, align 8
  %13 = alloca ptr, align 8
  %14 = alloca i32, align 4
  %15 = alloca i32, align 4
  store ptr %0, ptr %6, align 8, !tbaa !19
  store i32 %1, ptr %7, align 4, !tbaa !9
  store i64 %2, ptr %8, align 8, !tbaa !52
  store i32 %3, ptr %9, align 4, !tbaa !9
  call void @llvm.lifetime.start.p0(i64 8, ptr %10) #8
  %16 = load ptr, ptr %6, align 8, !tbaa !19
  %17 = getelementptr inbounds nuw %struct.AVFormatContext, ptr %16, i32 0, i32 3
  %18 = load ptr, ptr %17, align 8, !tbaa !21
  store ptr %18, ptr %10, align 8, !tbaa !36
  call void @llvm.lifetime.start.p0(i64 8, ptr %11) #8
  %19 = load ptr, ptr %6, align 8, !tbaa !19
  %20 = getelementptr inbounds nuw %struct.AVFormatContext, ptr %19, i32 0, i32 7
  %21 = load ptr, ptr %20, align 8, !tbaa !53
  %22 = load i32, ptr %7, align 4, !tbaa !9
  %23 = sext i32 %22 to i64
  %24 = getelementptr inbounds ptr, ptr %21, i64 %23
  %25 = load ptr, ptr %24, align 8, !tbaa !54
  store ptr %25, ptr %11, align 8, !tbaa !54
  call void @llvm.lifetime.start.p0(i64 8, ptr %12) #8
  %26 = load ptr, ptr %11, align 8, !tbaa !54
  %27 = call ptr @ffstream(ptr noundef %26)
  store ptr %27, ptr %12, align 8, !tbaa !56
  call void @llvm.lifetime.start.p0(i64 8, ptr %13) #8
  %28 = load ptr, ptr %11, align 8, !tbaa !54
  %29 = getelementptr inbounds nuw %struct.AVStream, ptr %28, i32 0, i32 4
  %30 = load ptr, ptr %29, align 8, !tbaa !58
  store ptr %30, ptr %13, align 8, !tbaa !61
  call void @llvm.lifetime.start.p0(i64 4, ptr %14) #8
  %31 = load ptr, ptr %11, align 8, !tbaa !54
  %32 = load i64, ptr %8, align 8, !tbaa !52
  %33 = load i32, ptr %9, align 4, !tbaa !9
  %34 = call i32 @av_index_search_timestamp(ptr noundef %31, i64 noundef %32, i32 noundef %33)
  store i32 %34, ptr %14, align 4, !tbaa !9
  %35 = load i32, ptr %14, align 4, !tbaa !9
  %36 = icmp slt i32 %35, 0
  br i1 %36, label %37, label %38

37:                                               ; preds = %4
  store i32 -1, ptr %5, align 4
  store i32 1, ptr %15, align 4
  br label %67

38:                                               ; preds = %4
  %39 = load ptr, ptr %6, align 8, !tbaa !19
  %40 = getelementptr inbounds nuw %struct.AVFormatContext, ptr %39, i32 0, i32 4
  %41 = load ptr, ptr %40, align 8, !tbaa !63
  %42 = load ptr, ptr %12, align 8, !tbaa !56
  %43 = getelementptr inbounds nuw %struct.FFStream, ptr %42, i32 0, i32 12
  %44 = load ptr, ptr %43, align 8, !tbaa !64
  %45 = load i32, ptr %14, align 4, !tbaa !9
  %46 = sext i32 %45 to i64
  %47 = getelementptr inbounds %struct.AVIndexEntry, ptr %44, i64 %46
  %48 = getelementptr inbounds nuw %struct.AVIndexEntry, ptr %47, i32 0, i32 0
  %49 = load i64, ptr %48, align 8, !tbaa !75
  %50 = call i64 @avio_seek(ptr noundef %41, i64 noundef %49, i32 noundef 0)
  %51 = icmp slt i64 %50, 0
  br i1 %51, label %52, label %53

52:                                               ; preds = %38
  store i32 -1, ptr %5, align 4
  store i32 1, ptr %15, align 4
  br label %67

53:                                               ; preds = %38
  %54 = load ptr, ptr %12, align 8, !tbaa !56
  %55 = getelementptr inbounds nuw %struct.FFStream, ptr %54, i32 0, i32 12
  %56 = load ptr, ptr %55, align 8, !tbaa !64
  %57 = load i32, ptr %14, align 4, !tbaa !9
  %58 = sext i32 %57 to i64
  %59 = getelementptr inbounds %struct.AVIndexEntry, ptr %56, i64 %58
  %60 = getelementptr inbounds nuw %struct.AVIndexEntry, ptr %59, i32 0, i32 1
  %61 = load i64, ptr %60, align 8, !tbaa !77
  %62 = trunc i64 %61 to i32
  %63 = load ptr, ptr %13, align 8, !tbaa !61
  %64 = getelementptr inbounds nuw %struct.NSVStream, ptr %63, i32 0, i32 0
  store i32 %62, ptr %64, align 4, !tbaa !78
  %65 = load ptr, ptr %10, align 8, !tbaa !36
  %66 = getelementptr inbounds nuw %struct.NSVContext, ptr %65, i32 0, i32 4
  store i32 0, ptr %66, align 4, !tbaa !38
  store i32 0, ptr %5, align 4
  store i32 1, ptr %15, align 4
  br label %67

67:                                               ; preds = %53, %52, %37
  call void @llvm.lifetime.end.p0(i64 4, ptr %14) #8
  call void @llvm.lifetime.end.p0(i64 8, ptr %13) #8
  call void @llvm.lifetime.end.p0(i64 8, ptr %12) #8
  call void @llvm.lifetime.end.p0(i64 8, ptr %11) #8
  call void @llvm.lifetime.end.p0(i64 8, ptr %10) #8
  %68 = load i32, ptr %5, align 4
  ret i32 %68
}