; Function Attrs: nounwind uwtable
define internal range(i32 -1, 1) i32 @nsv_read_seek(ptr noundef readonly captures(none) %0, i32 noundef %1, i64 noundef %2, i32 noundef %3) #0 {
  %5 = getelementptr inbounds nuw i8, ptr %0, i64 24
  %6 = load ptr, ptr %5, align 8, !tbaa !16
  %7 = getelementptr inbounds nuw i8, ptr %0, i64 48
  %8 = load ptr, ptr %7, align 8, !tbaa !55
  %9 = sext i32 %1 to i64
  %10 = getelementptr inbounds ptr, ptr %8, i64 %9
  %11 = load ptr, ptr %10, align 8, !tbaa !56
  %12 = getelementptr inbounds nuw i8, ptr %11, i64 24
  %13 = load ptr, ptr %12, align 8, !tbaa !58
  %14 = tail call i32 @av_index_search_timestamp(ptr noundef %11, i64 noundef %2, i32 noundef %3) #8
  %15 = icmp slt i32 %14, 0
  br i1 %15, label %32, label %16

16:                                               ; preds = %4
  %17 = getelementptr inbounds nuw i8, ptr %0, i64 32
  %18 = load ptr, ptr %17, align 8, !tbaa !41
  %19 = getelementptr inbounds nuw i8, ptr %11, i64 320
  %20 = load ptr, ptr %19, align 8, !tbaa !61
  %21 = zext nneg i32 %14 to i64
  %22 = getelementptr inbounds nuw %struct.AVIndexEntry, ptr %20, i64 %21
  %23 = load i64, ptr %22, align 8, !tbaa !73
  %24 = tail call i64 @avio_seek(ptr noundef %18, i64 noundef %23, i32 noundef 0) #8
  %25 = icmp slt i64 %24, 0
  br i1 %25, label %32, label %26

26:                                               ; preds = %16
  %27 = load ptr, ptr %19, align 8, !tbaa !61
  %28 = getelementptr inbounds nuw %struct.AVIndexEntry, ptr %27, i64 %21, i32 1
  %29 = load i64, ptr %28, align 8, !tbaa !75
  %30 = trunc i64 %29 to i32
  store i32 %30, ptr %13, align 4, !tbaa !76
  %31 = getelementptr inbounds nuw i8, ptr %6, i64 20
  store i32 0, ptr %31, align 4, !tbaa !31
  br label %32

32:                                               ; preds = %16, %4, %26
  %.0 = phi i32 [ 0, %26 ], [ -1, %4 ], [ -1, %16 ]
  ret i32 %.0
}